#include <math.h>
#include <stdio.h>
#include <stdlib.h>
#include <string.h>

int main()
{
	double sl[10000],he=0;
	int m,i,n,j;
	scanf("%d\n",&m);
	sl[0]=2*1.0/1;
	for(i=0;i<9999;i++)
{
	sl[i+1]=1+1*1.0/sl[i];	
	}
for(i=0;i<m;i++)
{
	scanf("%d",&n);
    for(j=0;j<n;j++)
	{
       he+=sl[j];
	   }
	printf("%.3lf\n",he);
he=0;
}
return 0;
}













































































































	