; ModuleID = '29/71.c'
source_filename = "29/71.c"
target datalayout = "e-m:e-p270:32:32-p271:32:32-p272:64:64-i64:64-f80:128-n8:16:32:64-S128"
target triple = "x86_64-pc-linux-gnu"

@.str = private unnamed_addr constant [4 x i8] c"%d\0A\00", align 1
@.str.1 = private unnamed_addr constant [3 x i8] c"%d\00", align 1
@.str.2 = private unnamed_addr constant [7 x i8] c"%.3lf\0A\00", align 1

; Function Attrs: noinline nounwind uwtable
define dso_local i32 @main() #0 {
  %1 = alloca i32, align 4
  %2 = alloca [10000 x double], align 16
  %3 = alloca double, align 8
  %4 = alloca i32, align 4
  %5 = alloca i32, align 4
  %6 = alloca i32, align 4
  %7 = alloca i32, align 4
  store i32 0, i32* %1, align 4
  store double 0.000000e+00, double* %3, align 8
  %8 = call i32 (i8*, ...) @__isoc99_scanf(i8* getelementptr inbounds ([4 x i8], [4 x i8]* @.str, i64 0, i64 0), i32* %4)
  %9 = getelementptr inbounds [10000 x double], [10000 x double]* %2, i64 0, i64 0
  store double 2.000000e+00, double* %9, align 16
  store i32 0, i32* %5, align 4
  br label %10

10:                                               ; preds = %24, %0
  %11 = load i32, i32* %5, align 4
  %12 = icmp slt i32 %11, 9999
  br i1 %12, label %13, label %27

13:                                               ; preds = %10
  %14 = load i32, i32* %5, align 4
  %15 = sext i32 %14 to i64
  %16 = getelementptr inbounds [10000 x double], [10000 x double]* %2, i64 0, i64 %15
  %17 = load double, double* %16, align 8
  %18 = fdiv double 1.000000e+00, %17
  %19 = fadd double 1.000000e+00, %18
  %20 = load i32, i32* %5, align 4
  %21 = add nsw i32 %20, 1
  %22 = sext i32 %21 to i64
  %23 = getelementptr inbounds [10000 x double], [10000 x double]* %2, i64 0, i64 %22
  store double %19, double* %23, align 8
  br label %24

24:                                               ; preds = %13
  %25 = load i32, i32* %5, align 4
  %26 = add nsw i32 %25, 1
  store i32 %26, i32* %5, align 4
  br label %10

27:                                               ; preds = %10
  store i32 0, i32* %5, align 4
  br label %28

28:                                               ; preds = %51, %27
  %29 = load i32, i32* %5, align 4
  %30 = load i32, i32* %4, align 4
  %31 = icmp slt i32 %29, %30
  br i1 %31, label %32, label %54

32:                                               ; preds = %28
  %33 = call i32 (i8*, ...) @__isoc99_scanf(i8* getelementptr inbounds ([3 x i8], [3 x i8]* @.str.1, i64 0, i64 0), i32* %6)
  store i32 0, i32* %7, align 4
  br label %34

34:                                               ; preds = %45, %32
  %35 = load i32, i32* %7, align 4
  %36 = load i32, i32* %6, align 4
  %37 = icmp slt i32 %35, %36
  br i1 %37, label %38, label %48

38:                                               ; preds = %34
  %39 = load i32, i32* %7, align 4
  %40 = sext i32 %39 to i64
  %41 = getelementptr inbounds [10000 x double], [10000 x double]* %2, i64 0, i64 %40
  %42 = load double, double* %41, align 8
  %43 = load double, double* %3, align 8
  %44 = fadd double %43, %42
  store double %44, double* %3, align 8
  br label %45

45:                                               ; preds = %38
  %46 = load i32, i32* %7, align 4
  %47 = add nsw i32 %46, 1
  store i32 %47, i32* %7, align 4
  br label %34

48:                                               ; preds = %34
  %49 = load double, double* %3, align 8
  %50 = call i32 (i8*, ...) @printf(i8* getelementptr inbounds ([7 x i8], [7 x i8]* @.str.2, i64 0, i64 0), double %49)
  store double 0.000000e+00, double* %3, align 8
  br label %51

51:                                               ; preds = %48
  %52 = load i32, i32* %5, align 4
  %53 = add nsw i32 %52, 1
  store i32 %53, i32* %5, align 4
  br label %28

54:                                               ; preds = %28
  ret i32 0
}

declare dso_local i32 @__isoc99_scanf(i8*, ...) #1

declare dso_local i32 @printf(i8*, ...) #1


!llvm.module.flags = !{!0}
!llvm.ident = !{!1}

!0 = !{i32 1, !"wchar_size", i32 4}
!1 = !{!"clang version 10.0.0-4ubuntu1 "}
